; Function Attrs: mustprogress nounwind uwtable
define hidden void @_ZN6hermes2vm18JSWeakMapBuildMetaEPKNS0_6GCCellERNS0_8Metadata7BuilderE(ptr noundef %cell, ptr noundef nonnull align 8 dereferenceable(224) %mb) local_unnamed_addr #0 {
entry:
  %hasValue_.i.i.i = getelementptr inbounds nuw i8, ptr %mb, i64 212
  %0 = load i8, ptr %hasValue_.i.i.i, align 4
  %tobool.i.i.i = trunc i8 %0 to i1
  br i1 %tobool.i.i.i, label %_ZN6hermes2vm13JSWeakMapImplILNS0_8CellKindE51EE21WeakMapOrSetBuildMetaEPKNS0_6GCCellERNS0_8Metadata7BuilderE.exit, label %_ZN6hermes2vm17JSWeakMapImplBase24WeakMapImplBaseBuildMetaEPKNS0_6GCCellERNS0_8Metadata7BuilderE.exit.sink.split.i

_ZN6hermes2vm17JSWeakMapImplBase24WeakMapImplBaseBuildMetaEPKNS0_6GCCellERNS0_8Metadata7BuilderE.exit.sink.split.i: ; preds = %entry
  %jsObjectOverlapSlots_.i.i = getelementptr inbounds nuw i8, ptr %mb, i64 208
  store i32 5, ptr %jsObjectOverlapSlots_.i.i, align 8
  store i8 1, ptr %hasValue_.i.i.i, align 4
  br label %_ZN6hermes2vm13JSWeakMapImplILNS0_8CellKindE51EE21WeakMapOrSetBuildMetaEPKNS0_6GCCellERNS0_8Metadata7BuilderE.exit

_ZN6hermes2vm13JSWeakMapImplILNS0_8CellKindE51EE21WeakMapOrSetBuildMetaEPKNS0_6GCCellERNS0_8Metadata7BuilderE.exit: ; preds = %entry, %_ZN6hermes2vm17JSWeakMapImplBase24WeakMapImplBaseBuildMetaEPKNS0_6GCCellERNS0_8Metadata7BuilderE.exit.sink.split.i
  tail call void @_ZN6hermes2vm17JSObjectBuildMetaEPKNS0_6GCCellERNS0_8Metadata7BuilderE(ptr noundef %cell, ptr noundef nonnull align 8 dereferenceable(224) %mb) #15
  %valueStorage_.i.i = getelementptr inbounds nuw i8, ptr %cell, i64 48
  tail call void @_ZN6hermes2vm8Metadata7Builder8addFieldEPKcPKNS0_13GCPointerBaseE(ptr noundef nonnull align 8 dereferenceable(224) %mb, ptr noundef nonnull @.str, ptr noundef nonnull %valueStorage_.i.i) #15
  %vtp_.i = getelementptr inbounds nuw i8, ptr %mb, i64 216
  store ptr @_ZN6hermes2vm13JSWeakMapImplILNS0_8CellKindE51EE2vtE, ptr %vtp_.i, align 8
  ret void
}